target datalayout = "e-m:e-p270:32:32-p271:32:32-p272:64:64-i64:64-i128:128-f80:128-n8:16:32:64-S128"
target triple = "x86_64-pc-linux-gnu"

; Function Attrs: inlinehint nounwind sspstrong willreturn memory(none) uwtable
define internal i64 @RB_INT2FIX(i64 noundef %0) #4 {
  %2 = alloca i64, align 8
  %3 = alloca i64, align 8
  %4 = alloca i64, align 8
  %5 = alloca i64, align 8
  %6 = alloca i64, align 8
  %7 = alloca i64, align 8
  store i64 %0, ptr %2, align 8, !tbaa !6
  call void @llvm.lifetime.start.p0(i64 8, ptr %3) #20
  %8 = load i64, ptr %2, align 8, !tbaa !6
  store i64 %8, ptr %3, align 8, !tbaa !6
  call void @llvm.lifetime.start.p0(i64 8, ptr %4) #20
  %9 = load i64, ptr %3, align 8, !tbaa !6
  %10 = shl i64 %9, 1
  %11 = add i64 %10, 1
  store i64 %11, ptr %4, align 8, !tbaa !6
  call void @llvm.lifetime.start.p0(i64 8, ptr %5) #20
  %12 = load i64, ptr %4, align 8, !tbaa !6
  store i64 %12, ptr %5, align 8, !tbaa !6
  call void @llvm.lifetime.start.p0(i64 8, ptr %6) #20
  %13 = load i64, ptr %5, align 8, !tbaa !6
  store i64 %13, ptr %6, align 8, !tbaa !6
  call void @llvm.lifetime.start.p0(i64 8, ptr %7) #20
  %14 = load i64, ptr %6, align 8, !tbaa !6
  store i64 %14, ptr %7, align 8, !tbaa !6
  %15 = load i64, ptr %7, align 8, !tbaa !6
  call void @llvm.lifetime.end.p0(i64 8, ptr %7) #20
  call void @llvm.lifetime.end.p0(i64 8, ptr %6) #20
  call void @llvm.lifetime.end.p0(i64 8, ptr %5) #20
  call void @llvm.lifetime.end.p0(i64 8, ptr %4) #20
  call void @llvm.lifetime.end.p0(i64 8, ptr %3) #20
  ret i64 %15
}

; Function Attrs: inlinehint nounwind sspstrong uwtable
define internal i64 @rb_ll2num_inline(i64 noundef %0) #5 {
  %2 = alloca i64, align 8
  %3 = alloca i64, align 8
  store i64 %0, ptr %3, align 8, !tbaa !44
  %4 = load i64, ptr %3, align 8, !tbaa !44
  %5 = icmp slt i64 %4, 4611686018427387904
  br i1 %5, label %6, label %12

6:                                                ; preds = %1
  %7 = load i64, ptr %3, align 8, !tbaa !44
  %8 = icmp sge i64 %7, -4611686018427387904
  br i1 %8, label %9, label %12

9:                                                ; preds = %6
  %10 = load i64, ptr %3, align 8, !tbaa !44
  %11 = call i64 @RB_INT2FIX(i64 noundef %10) #22
  store i64 %11, ptr %2, align 8
  br label %15

12:                                               ; preds = %6, %1
  %13 = load i64, ptr %3, align 8, !tbaa !44
  %14 = call i64 @rb_ll2inum(i64 noundef %13)
  store i64 %14, ptr %2, align 8
  br label %15

15:                                               ; preds = %12, %9
  %16 = load i64, ptr %2, align 8
  ret i64 %16
}

; Function Attrs: inlinehint nounwind sspstrong willreturn memory(none) uwtable
define internal zeroext i1 @RB_NIL_P(i64 noundef %0) #4 {
  %2 = alloca i64, align 8
  store i64 %0, ptr %2, align 8, !tbaa !6
  %3 = load i64, ptr %2, align 8, !tbaa !6
  %4 = icmp eq i64 %3, 4
  ret i1 %4
}

; Function Attrs: nounwind sspstrong uwtable
define internal i64 @memory_view_item_size_from_format(i64 noundef %0, i64 noundef %1) #0 {
  %3 = alloca i64, align 8
  %4 = alloca i64, align 8
  %5 = alloca i64, align 8
  %6 = alloca ptr, align 8
  %7 = alloca ptr, align 8
  %8 = alloca i64, align 8
  %9 = alloca i32, align 4
  store i64 %0, ptr %4, align 8, !tbaa !6
  store i64 %1, ptr %5, align 8, !tbaa !6
  call void @llvm.lifetime.start.p0(i64 8, ptr %6) #20
  store ptr null, ptr %6, align 8, !tbaa !12
  %10 = load i64, ptr %5, align 8, !tbaa !6
  %11 = call zeroext i1 @RB_NIL_P(i64 noundef %10) #22
  br i1 %11, label %14, label %12

12:                                               ; preds = %2
  %13 = call ptr @rb_string_value_cstr(ptr noundef %5)
  store ptr %13, ptr %6, align 8, !tbaa !12
  br label %14

14:                                               ; preds = %12, %2
  call void @llvm.lifetime.start.p0(i64 8, ptr %7) #20
  store ptr null, ptr %7, align 8, !tbaa !12
  call void @llvm.lifetime.start.p0(i64 8, ptr %8) #20
  %15 = load ptr, ptr %6, align 8, !tbaa !12
  %16 = call i64 @rb_memory_view_item_size_from_format(ptr noundef %15, ptr noundef %7)
  store i64 %16, ptr %8, align 8, !tbaa !6
  %17 = load ptr, ptr %7, align 8, !tbaa !12
  %18 = icmp ne ptr %17, null
  br i1 %18, label %23, label %19

19:                                               ; preds = %14
  %20 = load i64, ptr %8, align 8, !tbaa !6
  %21 = call i64 @rb_ll2num_inline(i64 noundef %20)
  %22 = call i64 @rb_assoc_new(i64 noundef %21, i64 noundef 4)
  store i64 %22, ptr %3, align 8
  store i32 1, ptr %9, align 4
  br label %29

23:                                               ; preds = %14
  %24 = load i64, ptr %8, align 8, !tbaa !6
  %25 = call i64 @rb_ll2num_inline(i64 noundef %24)
  %26 = load ptr, ptr %7, align 8, !tbaa !12
  %27 = call i64 @rb_str_new_cstr(ptr noundef %26)
  %28 = call i64 @rb_assoc_new(i64 noundef %25, i64 noundef %27)
  store i64 %28, ptr %3, align 8
  store i32 1, ptr %9, align 4
  br label %29

29:                                               ; preds = %23, %19
  call void @llvm.lifetime.end.p0(i64 8, ptr %8) #20
  call void @llvm.lifetime.end.p0(i64 8, ptr %7) #20
  call void @llvm.lifetime.end.p0(i64 8, ptr %6) #20
  %30 = load i64, ptr %3, align 8
  ret i64 %30
}