; Function Attrs: nounwind sspstrong uwtable
define internal i64 @memory_view_item_size_from_format(i64 %0, i64 noundef %1) #0 {
  %3 = alloca i64, align 8
  %4 = alloca ptr, align 8
  store i64 %1, ptr %3, align 8, !tbaa !6
  %5 = icmp eq i64 %1, 4
  br i1 %5, label %8, label %6

6:                                                ; preds = %2
  %7 = call ptr @rb_string_value_cstr(ptr noundef nonnull %3) #9
  br label %8

8:                                                ; preds = %6, %2
  %.03 = phi ptr [ null, %2 ], [ %7, %6 ]
  call void @llvm.lifetime.start.p0(i64 8, ptr nonnull %4) #9
  store ptr null, ptr %4, align 8, !tbaa !10
  %9 = call i64 @rb_memory_view_item_size_from_format(ptr noundef %.03, ptr noundef nonnull %4) #9
  %10 = load ptr, ptr %4, align 8, !tbaa !10
  %.not = icmp eq ptr %10, null
  %11 = add i64 %9, 4611686018427387904
  %or.cond.i = icmp sgt i64 %11, -1
  br i1 %.not, label %12, label %19

12:                                               ; preds = %8
  br i1 %or.cond.i, label %13, label %16

13:                                               ; preds = %12
  %14 = shl nsw i64 %9, 1
  %15 = or disjoint i64 %14, 1
  br label %rb_ll2num_inline.exit

16:                                               ; preds = %12
  %17 = call i64 @rb_ll2inum(i64 noundef %9) #9
  br label %rb_ll2num_inline.exit

rb_ll2num_inline.exit:                            ; preds = %13, %16
  %.0.i = phi i64 [ %15, %13 ], [ %17, %16 ]
  %18 = call i64 @rb_assoc_new(i64 noundef %.0.i, i64 noundef 4) #9
  br label %28

19:                                               ; preds = %8
  br i1 %or.cond.i, label %20, label %23

20:                                               ; preds = %19
  %21 = shl nsw i64 %9, 1
  %22 = or disjoint i64 %21, 1
  br label %rb_ll2num_inline.exit6

23:                                               ; preds = %19
  %24 = call i64 @rb_ll2inum(i64 noundef %9) #9
  %.pre = load ptr, ptr %4, align 8, !tbaa !10
  br label %rb_ll2num_inline.exit6

rb_ll2num_inline.exit6:                           ; preds = %20, %23
  %25 = phi ptr [ %10, %20 ], [ %.pre, %23 ]
  %.0.i5 = phi i64 [ %22, %20 ], [ %24, %23 ]
  %26 = call i64 @rb_str_new_cstr(ptr noundef %25) #9
  %27 = call i64 @rb_assoc_new(i64 noundef %.0.i5, i64 noundef %26) #9
  br label %28

28:                                               ; preds = %rb_ll2num_inline.exit6, %rb_ll2num_inline.exit
  %.0 = phi i64 [ %27, %rb_ll2num_inline.exit6 ], [ %18, %rb_ll2num_inline.exit ]
  call void @llvm.lifetime.end.p0(i64 8, ptr nonnull %4) #9
  ret i64 %.0
}